target datalayout = "e-m:e-p270:32:32-p271:32:32-p272:64:64-i64:64-i128:128-f80:128-n8:16:32:64-S128"
target triple = "x86_64-unknown-linux-gnu"

%"class.rocksdb::Slice" = type { ptr, i64 }
%"class.std::shared_ptr" = type { %"class.std::__shared_ptr" }
%"class.std::__shared_ptr" = type { ptr, %"class.std::__shared_count" }
%"class.std::__shared_count" = type { ptr }
%"class.rocksdb::FullTypedCacheInterface" = type <{ %"class.rocksdb::BasicTypedCacheInterface", [8 x i8] }>
%"class.rocksdb::BasicTypedCacheInterface" = type { %"class.rocksdb::BaseCacheInterface" }
%"class.rocksdb::BaseCacheInterface" = type { %"class.std::shared_ptr" }
%"class.rocksdb::BlobSource" = type <{ ptr, ptr, ptr, ptr, %"class.rocksdb::FullTypedCacheInterface", i8, [7 x i8] }>
%"class.rocksdb::Status" = type { i8, i8, i8, i8, i8, i8, %"class.std::unique_ptr" }
%"class.std::unique_ptr" = type { %"struct.std::__uniq_ptr_data" }
%"struct.std::__uniq_ptr_data" = type { %"class.std::__uniq_ptr_impl" }
%"class.std::__uniq_ptr_impl" = type { %"class.std::tuple" }
%"class.std::tuple" = type { %"struct.std::_Tuple_impl" }
%"struct.std::_Tuple_impl" = type { %"struct.std::_Head_base.84" }
%"struct.std::_Head_base.84" = type { ptr }

@.str.3 = private unnamed_addr constant [1 x i8] zeroinitializer, align 1

; Function Attrs: mustprogress nounwind uwtable
define linkonce_odr void @_ZN7rocksdb5SliceC2Ev(ptr noundef nonnull align 8 dereferenceable(16) %this) unnamed_addr #1 comdat align 2 {
entry:
  %this.addr = alloca ptr, align 8
  store ptr %this, ptr %this.addr, align 8
  %this1 = load ptr, ptr %this.addr, align 8
  %data_ = getelementptr inbounds %"class.rocksdb::Slice", ptr %this1, i32 0, i32 0
  store ptr @.str.3, ptr %data_, align 8
  %size_ = getelementptr inbounds %"class.rocksdb::Slice", ptr %this1, i32 0, i32 1
  store i64 0, ptr %size_, align 8
  ret void
}

; Function Attrs: mustprogress uwtable
define void @_ZNK7rocksdb10BlobSource20InsertEntryIntoCacheERKNS_5SliceEPNS_12BlobContentsEPPNS_24BasicTypedCacheInterfaceIS4_LNS_14CacheEntryRoleE11ESt10shared_ptrINS_5CacheEEE11TypedHandleENS9_8PriorityE(ptr noalias sret(%"class.rocksdb::Status") align 8 %agg.result, ptr noundef nonnull align 8 dereferenceable(57) %this, ptr noundef nonnull align 8 dereferenceable(16) %key, ptr noundef %value, ptr noundef %cache_handle, i32 noundef %priority) #0 align 2 {
entry:
  %result.ptr = alloca ptr, align 8
  %this.addr = alloca ptr, align 8
  %key.addr = alloca ptr, align 8
  %value.addr = alloca ptr, align 8
  %cache_handle.addr = alloca ptr, align 8
  %priority.addr = alloca i32, align 4
  %ref.tmp = alloca %"class.rocksdb::Slice", align 8
  store ptr %agg.result, ptr %result.ptr, align 8
  store ptr %this, ptr %this.addr, align 8
  store ptr %key, ptr %key.addr, align 8
  store ptr %value, ptr %value.addr, align 8
  store ptr %cache_handle, ptr %cache_handle.addr, align 8
  store i32 %priority, ptr %priority.addr, align 4
  %this1 = load ptr, ptr %this.addr, align 8
  %blob_cache_ = getelementptr inbounds %"class.rocksdb::BlobSource", ptr %this1, i32 0, i32 4
  %0 = load ptr, ptr %key.addr, align 8
  %1 = load ptr, ptr %value.addr, align 8
  %2 = load ptr, ptr %value.addr, align 8
  %call = call noundef i64 @_ZNK7rocksdb12BlobContents22ApproximateMemoryUsageEv(ptr noundef nonnull align 8 dereferenceable(32) %2)
  %3 = load ptr, ptr %cache_handle.addr, align 8
  %4 = load i32, ptr %priority.addr, align 4
  %lowest_used_cache_tier_ = getelementptr inbounds %"class.rocksdb::BlobSource", ptr %this1, i32 0, i32 5
  %5 = load i8, ptr %lowest_used_cache_tier_, align 8
  call void @_ZN7rocksdb5SliceC2Ev(ptr noundef nonnull align 8 dereferenceable(16) %ref.tmp)
  call void @_ZN7rocksdb23FullTypedCacheInterfaceINS_12BlobContentsENS_19BlobContentsCreatorELNS_14CacheEntryRoleE11ESt10shared_ptrINS_5CacheEEE10InsertFullERKNS_5SliceEPS1_mPPNS_24BasicTypedCacheInterfaceIS1_LS3_11ES6_E11TypedHandleENS5_8PriorityENS_9CacheTierESA_NS_15CompressionTypeE(ptr sret(%"class.rocksdb::Status") align 8 %agg.result, ptr noundef nonnull align 8 dereferenceable(17) %blob_cache_, ptr noundef nonnull align 8 dereferenceable(16) %0, ptr noundef %1, i64 noundef %call, ptr noundef %3, i32 noundef %4, i8 noundef zeroext %5, ptr noundef nonnull align 8 dereferenceable(16) %ref.tmp, i8 noundef zeroext 0)
  ret void
}