; Function Attrs: mustprogress uwtable
define void @_ZNK7rocksdb10BlobSource20InsertEntryIntoCacheERKNS_5SliceEPNS_12BlobContentsEPPNS_24BasicTypedCacheInterfaceIS4_LNS_14CacheEntryRoleE11ESt10shared_ptrINS_5CacheEEE11TypedHandleENS9_8PriorityE(ptr noalias sret(%"class.rocksdb::Status") align 8 %agg.result, ptr noundef nonnull align 8 dereferenceable(57) %this, ptr noundef nonnull align 8 dereferenceable(16) %key, ptr noundef nonnull %value, ptr noundef %cache_handle, i32 noundef %priority) local_unnamed_addr #2 align 2 {
entry:
  %ref.tmp = alloca %"class.rocksdb::Slice", align 8
  %blob_cache_ = getelementptr inbounds i8, ptr %this, i64 32
  %call = tail call noundef i64 @_ZNK7rocksdb12BlobContents22ApproximateMemoryUsageEv(ptr noundef nonnull align 8 dereferenceable(32) %value)
  %lowest_used_cache_tier_ = getelementptr inbounds i8, ptr %this, i64 56
  %0 = load i8, ptr %lowest_used_cache_tier_, align 8
  store ptr @.str.3, ptr %ref.tmp, align 8
  %size_.i = getelementptr inbounds i8, ptr %ref.tmp, i64 8
  store i64 0, ptr %size_.i, align 8
  call void @_ZN7rocksdb23FullTypedCacheInterfaceINS_12BlobContentsENS_19BlobContentsCreatorELNS_14CacheEntryRoleE11ESt10shared_ptrINS_5CacheEEE10InsertFullERKNS_5SliceEPS1_mPPNS_24BasicTypedCacheInterfaceIS1_LS3_11ES6_E11TypedHandleENS5_8PriorityENS_9CacheTierESA_NS_15CompressionTypeE(ptr sret(%"class.rocksdb::Status") align 8 %agg.result, ptr noundef nonnull align 8 dereferenceable(17) %blob_cache_, ptr noundef nonnull align 8 dereferenceable(16) %key, ptr noundef nonnull %value, i64 noundef %call, ptr noundef %cache_handle, i32 noundef %priority, i8 noundef zeroext %0, ptr noundef nonnull align 8 dereferenceable(16) %ref.tmp, i8 noundef zeroext 0)
  ret void
}